; Function Attrs: nounwind uwtable
define hidden range(i32 -16, 1) i32 @mbedtls_mpi_shift_l(ptr noundef captures(none) %0, i64 noundef %1) local_unnamed_addr #0 {
  %3 = load ptr, ptr %0, align 8, !tbaa !12
  %4 = getelementptr inbounds nuw i8, ptr %0, i64 10
  %5 = load i16, ptr %4, align 2, !tbaa !3
  %6 = zext i16 %5 to i64
  %7 = tail call i64 @mbedtls_mpi_core_bitlen(ptr noundef %3, i64 noundef %6) #16
  %8 = add i64 %7, %1
  %9 = load i16, ptr %4, align 2, !tbaa !3
  %10 = zext i16 %9 to i64
  %11 = shl nuw nsw i64 %10, 6
  %12 = icmp ult i64 %11, %8
  br i1 %12, label %13, label %mbedtls_mpi_grow.exit.thread

13:                                               ; preds = %2
  %14 = lshr i64 %8, 6
  %15 = and i64 %8, 63
  %16 = icmp ne i64 %15, 0
  %17 = zext i1 %16 to i64
  %18 = add nuw nsw i64 %14, %17
  %19 = icmp samesign ugt i64 %18, 10000
  br i1 %19, label %mbedtls_mpi_grow.exit, label %20

20:                                               ; preds = %13
  %21 = icmp samesign ugt i64 %18, %10
  br i1 %21, label %22, label %mbedtls_mpi_grow.exit.thread

22:                                               ; preds = %20
  %23 = tail call noalias ptr @calloc(i64 noundef %18, i64 noundef 8) #17
  %24 = icmp eq ptr %23, null
  br i1 %24, label %mbedtls_mpi_grow.exit, label %25

25:                                               ; preds = %22
  %26 = load ptr, ptr %0, align 8, !tbaa !12
  %.not.i = icmp eq ptr %26, null
  br i1 %.not.i, label %29, label %27

27:                                               ; preds = %25
  %28 = shl nuw nsw i64 %10, 3
  tail call void @llvm.memcpy.p0.p0.i64(ptr nonnull align 8 %23, ptr nonnull align 8 %26, i64 %28, i1 false)
  tail call void @mbedtls_zeroize_and_free(ptr noundef nonnull %26, i64 noundef %28) #16
  br label %29

29:                                               ; preds = %27, %25
  %30 = trunc nuw nsw i64 %18 to i16
  store i16 %30, ptr %4, align 2, !tbaa !3
  store ptr %23, ptr %0, align 8, !tbaa !12
  br label %mbedtls_mpi_grow.exit.thread

mbedtls_mpi_grow.exit.thread:                     ; preds = %20, %29, %2
  %.pre-phi = phi i64 [ %10, %20 ], [ %18, %29 ], [ %10, %2 ]
  %31 = load ptr, ptr %0, align 8, !tbaa !12
  tail call void @mbedtls_mpi_core_shift_l(ptr noundef %31, i64 noundef %.pre-phi, i64 noundef %1) #16
  br label %mbedtls_mpi_grow.exit

mbedtls_mpi_grow.exit:                            ; preds = %22, %13, %mbedtls_mpi_grow.exit.thread
  %.0 = phi i32 [ 0, %mbedtls_mpi_grow.exit.thread ], [ -16, %13 ], [ -16, %22 ]
  ret i32 %.0
}